ccopy_reg
_reconstructor
p0
(csklearn.preprocessing.label
MultiLabelBinarizer
p1
c__builtin__
object
p2
Ntp3
Rp4
(dp5
S'classes_'
p6
cnumpy.core.multiarray
_reconstruct
p7
(cnumpy
ndarray
p8
(I0
tp9
S'b'
p10
tp11
Rp12
(I1
(I6
tp13
cnumpy
dtype
p14
(S'O8'
p15
I0
I1
tp16
Rp17
(I3
S'|'
p18
NNNI-1
I-1
I63
tp19
bI00
(lp20
cnumpy.core.multiarray
scalar
p21
(g14
(S'S10'
p22
I0
I1
tp23
Rp24
(I3
S'|'
p25
NNNI10
I1
I0
tp26
bS'15g01a0501'
p27
tp28
Rp29
ag21
(g14
(S'S10'
p30
I0
I1
tp31
Rp32
(I3
S'|'
p33
NNNI10
I1
I0
tp34
bS'15g01a0502'
p35
tp36
Rp37
ag21
(g14
(S'S10'
p38
I0
I1
tp39
Rp40
(I3
S'|'
p41
NNNI10
I1
I0
tp42
bS'15g01a0504'
p43
tp44
Rp45
ag21
(g14
(S'S10'
p46
I0
I1
tp47
Rp48
(I3
S'|'
p49
NNNI10
I1
I0
tp50
bS'15g01a0505'
p51
tp52
Rp53
ag21
(g14
(S'S10'
p54
I0
I1
tp55
Rp56
(I3
S'|'
p57
NNNI10
I1
I0
tp58
bS'15g01a0507'
p59
tp60
Rp61
ag21
(g14
(S'S10'
p62
I0
I1
tp63
Rp64
(I3
S'|'
p65
NNNI10
I1
I0
tp66
bS'15g01a0508'
p67
tp68
Rp69
atp70
bsS'sparse_output'
p71
I00
sS'classes'
p72
NsS'_sklearn_version'
p73
S'0.20.2'
p74
sb.