ccopy_reg
_reconstructor
p0
(csklearn.preprocessing.label
MultiLabelBinarizer
p1
c__builtin__
object
p2
Ntp3
Rp4
(dp5
S'classes_'
p6
cnumpy.core.multiarray
_reconstruct
p7
(cnumpy
ndarray
p8
(I0
tp9
S'b'
p10
tp11
Rp12
(I1
(I84
tp13
cnumpy
dtype
p14
(S'O8'
p15
I0
I1
tp16
Rp17
(I3
S'|'
p18
NNNI-1
I-1
I63
tp19
bI00
(lp20
cnumpy.core.multiarray
scalar
p21
(g14
(S'S10'
p22
I0
I1
tp23
Rp24
(I3
S'|'
p25
NNNI10
I1
I0
tp26
bS'163F1A0504'
p27
tp28
Rp29
ag21
(g14
(S'S10'
p30
I0
I1
tp31
Rp32
(I3
S'|'
p33
NNNI10
I1
I0
tp34
bS'163f1a0501'
p35
tp36
Rp37
ag21
(g14
(S'S10'
p38
I0
I1
tp39
Rp40
(I3
S'|'
p41
NNNI10
I1
I0
tp42
bS'163f1a0502'
p43
tp44
Rp45
ag21
(g14
(S'S10'
p46
I0
I1
tp47
Rp48
(I3
S'|'
p49
NNNI10
I1
I0
tp50
bS'163f1a0505'
p51
tp52
Rp53
ag21
(g14
(S'S10'
p54
I0
I1
tp55
Rp56
(I3
S'|'
p57
NNNI10
I1
I0
tp58
bS'16G01A0501'
p59
tp60
Rp61
ag21
(g14
(S'S10'
p62
I0
I1
tp63
Rp64
(I3
S'|'
p65
NNNI10
I1
I0
tp66
bS'16G01A0502'
p67
tp68
Rp69
ag21
(g14
(S'S10'
p70
I0
I1
tp71
Rp72
(I3
S'|'
p73
NNNI10
I1
I0
tp74
bS'16G01A0504'
p75
tp76
Rp77
ag21
(g14
(S'S10'
p78
I0
I1
tp79
Rp80
(I3
S'|'
p81
NNNI10
I1
I0
tp82
bS'16G01A0505'
p83
tp84
Rp85
ag21
(g14
(S'S10'
p86
I0
I1
tp87
Rp88
(I3
S'|'
p89
NNNI10
I1
I0
tp90
bS'16G01A0507'
p91
tp92
Rp93
ag21
(g14
(S'S10'
p94
I0
I1
tp95
Rp96
(I3
S'|'
p97
NNNI10
I1
I0
tp98
bS'16G01A0508'
p99
tp100
Rp101
ag21
(g14
(S'S10'
p102
I0
I1
tp103
Rp104
(I3
S'|'
p105
NNNI10
I1
I0
tp106
bS'16G01A0509'
p107
tp108
Rp109
ag21
(g14
(S'S10'
p110
I0
I1
tp111
Rp112
(I3
S'|'
p113
NNNI10
I1
I0
tp114
bS'16G01A0510'
p115
tp116
Rp117
ag21
(g14
(S'S10'
p118
I0
I1
tp119
Rp120
(I3
S'|'
p121
NNNI10
I1
I0
tp122
bS'16G01A0512'
p123
tp124
Rp125
ag21
(g14
(S'S10'
p126
I0
I1
tp127
Rp128
(I3
S'|'
p129
NNNI10
I1
I0
tp130
bS'16G01A0513'
p131
tp132
Rp133
ag21
(g14
(S'S10'
p134
I0
I1
tp135
Rp136
(I3
S'|'
p137
NNNI10
I1
I0
tp138
bS'16G01A0516'
p139
tp140
Rp141
ag21
(g14
(S'S10'
p142
I0
I1
tp143
Rp144
(I3
S'|'
p145
NNNI10
I1
I0
tp146
bS'16G01A0517'
p147
tp148
Rp149
ag21
(g14
(S'S10'
p150
I0
I1
tp151
Rp152
(I3
S'|'
p153
NNNI10
I1
I0
tp154
bS'16G01A0518'
p155
tp156
Rp157
ag21
(g14
(S'S10'
p158
I0
I1
tp159
Rp160
(I3
S'|'
p161
NNNI10
I1
I0
tp162
bS'16G01A0519'
p163
tp164
Rp165
ag21
(g14
(S'S10'
p166
I0
I1
tp167
Rp168
(I3
S'|'
p169
NNNI10
I1
I0
tp170
bS'16G01A0521'
p171
tp172
Rp173
ag21
(g14
(S'S10'
p174
I0
I1
tp175
Rp176
(I3
S'|'
p177
NNNI10
I1
I0
tp178
bS'16G01A0522'
p179
tp180
Rp181
ag21
(g14
(S'S10'
p182
I0
I1
tp183
Rp184
(I3
S'|'
p185
NNNI10
I1
I0
tp186
bS'16G01A0524'
p187
tp188
Rp189
ag21
(g14
(S'S10'
p190
I0
I1
tp191
Rp192
(I3
S'|'
p193
NNNI10
I1
I0
tp194
bS'16G01A0525'
p195
tp196
Rp197
ag21
(g14
(S'S10'
p198
I0
I1
tp199
Rp200
(I3
S'|'
p201
NNNI10
I1
I0
tp202
bS'16G01A0526'
p203
tp204
Rp205
ag21
(g14
(S'S10'
p206
I0
I1
tp207
Rp208
(I3
S'|'
p209
NNNI10
I1
I0
tp210
bS'16G01A0528'
p211
tp212
Rp213
ag21
(g14
(S'S10'
p214
I0
I1
tp215
Rp216
(I3
S'|'
p217
NNNI10
I1
I0
tp218
bS'16G01A0529'
p219
tp220
Rp221
ag21
(g14
(S'S10'
p222
I0
I1
tp223
Rp224
(I3
S'|'
p225
NNNI10
I1
I0
tp226
bS'16G01A0531'
p227
tp228
Rp229
ag21
(g14
(S'S10'
p230
I0
I1
tp231
Rp232
(I3
S'|'
p233
NNNI10
I1
I0
tp234
bS'16G01A0532'
p235
tp236
Rp237
ag21
(g14
(S'S10'
p238
I0
I1
tp239
Rp240
(I3
S'|'
p241
NNNI10
I1
I0
tp242
bS'16G01A0533'
p243
tp244
Rp245
ag21
(g14
(S'S10'
p246
I0
I1
tp247
Rp248
(I3
S'|'
p249
NNNI10
I1
I0
tp250
bS'16G01A0536'
p251
tp252
Rp253
ag21
(g14
(S'S10'
p254
I0
I1
tp255
Rp256
(I3
S'|'
p257
NNNI10
I1
I0
tp258
bS'16G01A0537'
p259
tp260
Rp261
ag21
(g14
(S'S10'
p262
I0
I1
tp263
Rp264
(I3
S'|'
p265
NNNI10
I1
I0
tp266
bS'16G01A0538'
p267
tp268
Rp269
ag21
(g14
(S'S10'
p270
I0
I1
tp271
Rp272
(I3
S'|'
p273
NNNI10
I1
I0
tp274
bS'16G01A0539'
p275
tp276
Rp277
ag21
(g14
(S'S10'
p278
I0
I1
tp279
Rp280
(I3
S'|'
p281
NNNI10
I1
I0
tp282
bS'16G01A0540'
p283
tp284
Rp285
ag21
(g14
(S'S10'
p286
I0
I1
tp287
Rp288
(I3
S'|'
p289
NNNI10
I1
I0
tp290
bS'16G01A0541'
p291
tp292
Rp293
ag21
(g14
(S'S10'
p294
I0
I1
tp295
Rp296
(I3
S'|'
p297
NNNI10
I1
I0
tp298
bS'16G01A0543'
p299
tp300
Rp301
ag21
(g14
(S'S10'
p302
I0
I1
tp303
Rp304
(I3
S'|'
p305
NNNI10
I1
I0
tp306
bS'16G01A0545'
p307
tp308
Rp309
ag21
(g14
(S'S10'
p310
I0
I1
tp311
Rp312
(I3
S'|'
p313
NNNI10
I1
I0
tp314
bS'16G01A0546'
p315
tp316
Rp317
ag21
(g14
(S'S10'
p318
I0
I1
tp319
Rp320
(I3
S'|'
p321
NNNI10
I1
I0
tp322
bS'16G01A0547'
p323
tp324
Rp325
ag21
(g14
(S'S10'
p326
I0
I1
tp327
Rp328
(I3
S'|'
p329
NNNI10
I1
I0
tp330
bS'16G01A0549'
p331
tp332
Rp333
ag21
(g14
(S'S10'
p334
I0
I1
tp335
Rp336
(I3
S'|'
p337
NNNI10
I1
I0
tp338
bS'16G01A0550'
p339
tp340
Rp341
ag21
(g14
(S'S10'
p342
I0
I1
tp343
Rp344
(I3
S'|'
p345
NNNI10
I1
I0
tp346
bS'16G01A0551'
p347
tp348
Rp349
ag21
(g14
(S'S10'
p350
I0
I1
tp351
Rp352
(I3
S'|'
p353
NNNI10
I1
I0
tp354
bS'16G01A0554'
p355
tp356
Rp357
ag21
(g14
(S'S10'
p358
I0
I1
tp359
Rp360
(I3
S'|'
p361
NNNI10
I1
I0
tp362
bS'16G01A0555'
p363
tp364
Rp365
ag21
(g14
(S'S10'
p366
I0
I1
tp367
Rp368
(I3
S'|'
p369
NNNI10
I1
I0
tp370
bS'16G01A0557'
p371
tp372
Rp373
ag21
(g14
(S'S10'
p374
I0
I1
tp375
Rp376
(I3
S'|'
p377
NNNI10
I1
I0
tp378
bS'16G01A0559'
p379
tp380
Rp381
ag21
(g14
(S'S10'
p382
I0
I1
tp383
Rp384
(I3
S'|'
p385
NNNI10
I1
I0
tp386
bS'16G01A0560'
p387
tp388
Rp389
ag21
(g14
(S'S10'
p390
I0
I1
tp391
Rp392
(I3
S'|'
p393
NNNI10
I1
I0
tp394
bS'16G01A0561'
p395
tp396
Rp397
ag21
(g14
(S'S10'
p398
I0
I1
tp399
Rp400
(I3
S'|'
p401
NNNI10
I1
I0
tp402
bS'16g01a0562'
p403
tp404
Rp405
ag21
(g14
(S'S10'
p406
I0
I1
tp407
Rp408
(I3
S'|'
p409
NNNI10
I1
I0
tp410
bS'16g01a0564'
p411
tp412
Rp413
ag21
(g14
(S'S10'
p414
I0
I1
tp415
Rp416
(I3
S'|'
p417
NNNI10
I1
I0
tp418
bS'16g01a0566'
p419
tp420
Rp421
ag21
(g14
(S'S10'
p422
I0
I1
tp423
Rp424
(I3
S'|'
p425
NNNI10
I1
I0
tp426
bS'16g01a0568'
p427
tp428
Rp429
ag21
(g14
(S'S10'
p430
I0
I1
tp431
Rp432
(I3
S'|'
p433
NNNI10
I1
I0
tp434
bS'16g01a0570'
p435
tp436
Rp437
ag21
(g14
(S'S10'
p438
I0
I1
tp439
Rp440
(I3
S'|'
p441
NNNI10
I1
I0
tp442
bS'16g01a0571'
p443
tp444
Rp445
ag21
(g14
(S'S10'
p446
I0
I1
tp447
Rp448
(I3
S'|'
p449
NNNI10
I1
I0
tp450
bS'16g01a0572'
p451
tp452
Rp453
ag21
(g14
(S'S10'
p454
I0
I1
tp455
Rp456
(I3
S'|'
p457
NNNI10
I1
I0
tp458
bS'16g01a0573'
p459
tp460
Rp461
ag21
(g14
(S'S10'
p462
I0
I1
tp463
Rp464
(I3
S'|'
p465
NNNI10
I1
I0
tp466
bS'16g01a0575'
p467
tp468
Rp469
ag21
(g14
(S'S10'
p470
I0
I1
tp471
Rp472
(I3
S'|'
p473
NNNI10
I1
I0
tp474
bS'16g01a0580'
p475
tp476
Rp477
ag21
(g14
(S'S10'
p478
I0
I1
tp479
Rp480
(I3
S'|'
p481
NNNI10
I1
I0
tp482
bS'16g01a0581'
p483
tp484
Rp485
ag21
(g14
(S'S10'
p486
I0
I1
tp487
Rp488
(I3
S'|'
p489
NNNI10
I1
I0
tp490
bS'16g01a0583'
p491
tp492
Rp493
ag21
(g14
(S'S10'
p494
I0
I1
tp495
Rp496
(I3
S'|'
p497
NNNI10
I1
I0
tp498
bS'16g01a0584'
p499
tp500
Rp501
ag21
(g14
(S'S10'
p502
I0
I1
tp503
Rp504
(I3
S'|'
p505
NNNI10
I1
I0
tp506
bS'16g01a0586'
p507
tp508
Rp509
ag21
(g14
(S'S10'
p510
I0
I1
tp511
Rp512
(I3
S'|'
p513
NNNI10
I1
I0
tp514
bS'16g01a0587'
p515
tp516
Rp517
ag21
(g14
(S'S10'
p518
I0
I1
tp519
Rp520
(I3
S'|'
p521
NNNI10
I1
I0
tp522
bS'16g01a0588'
p523
tp524
Rp525
ag21
(g14
(S'S10'
p526
I0
I1
tp527
Rp528
(I3
S'|'
p529
NNNI10
I1
I0
tp530
bS'16g01a0589'
p531
tp532
Rp533
ag21
(g14
(S'S10'
p534
I0
I1
tp535
Rp536
(I3
S'|'
p537
NNNI10
I1
I0
tp538
bS'16g01a0591'
p539
tp540
Rp541
ag21
(g14
(S'S10'
p542
I0
I1
tp543
Rp544
(I3
S'|'
p545
NNNI10
I1
I0
tp546
bS'16g01a0592'
p547
tp548
Rp549
ag21
(g14
(S'S10'
p550
I0
I1
tp551
Rp552
(I3
S'|'
p553
NNNI10
I1
I0
tp554
bS'16g01a0593'
p555
tp556
Rp557
ag21
(g14
(S'S10'
p558
I0
I1
tp559
Rp560
(I3
S'|'
p561
NNNI10
I1
I0
tp562
bS'16g01a0595'
p563
tp564
Rp565
ag21
(g14
(S'S10'
p566
I0
I1
tp567
Rp568
(I3
S'|'
p569
NNNI10
I1
I0
tp570
bS'16g01a0596'
p571
tp572
Rp573
ag21
(g14
(S'S10'
p574
I0
I1
tp575
Rp576
(I3
S'|'
p577
NNNI10
I1
I0
tp578
bS'16g01a0597'
p579
tp580
Rp581
ag21
(g14
(S'S10'
p582
I0
I1
tp583
Rp584
(I3
S'|'
p585
NNNI10
I1
I0
tp586
bS'16g01a0598'
p587
tp588
Rp589
ag21
(g14
(S'S10'
p590
I0
I1
tp591
Rp592
(I3
S'|'
p593
NNNI10
I1
I0
tp594
bS'16g01a05a4'
p595
tp596
Rp597
ag21
(g14
(S'S10'
p598
I0
I1
tp599
Rp600
(I3
S'|'
p601
NNNI10
I1
I0
tp602
bS'16g01a05a5'
p603
tp604
Rp605
ag21
(g14
(S'S10'
p606
I0
I1
tp607
Rp608
(I3
S'|'
p609
NNNI10
I1
I0
tp610
bS'16g01a05a6'
p611
tp612
Rp613
ag21
(g14
(S'S10'
p614
I0
I1
tp615
Rp616
(I3
S'|'
p617
NNNI10
I1
I0
tp618
bS'16g01a05a7'
p619
tp620
Rp621
ag21
(g14
(S'S10'
p622
I0
I1
tp623
Rp624
(I3
S'|'
p625
NNNI10
I1
I0
tp626
bS'16g01a05a9'
p627
tp628
Rp629
ag21
(g14
(S'S10'
p630
I0
I1
tp631
Rp632
(I3
S'|'
p633
NNNI10
I1
I0
tp634
bS'16g01a05b0'
p635
tp636
Rp637
ag21
(g14
(S'S10'
p638
I0
I1
tp639
Rp640
(I3
S'|'
p641
NNNI10
I1
I0
tp642
bS'16g01a05b1'
p643
tp644
Rp645
ag21
(g14
(S'S10'
p646
I0
I1
tp647
Rp648
(I3
S'|'
p649
NNNI10
I1
I0
tp650
bS'16g01a05b3'
p651
tp652
Rp653
ag21
(g14
(S'S10'
p654
I0
I1
tp655
Rp656
(I3
S'|'
p657
NNNI10
I1
I0
tp658
bS'16g01a05b4'
p659
tp660
Rp661
ag21
(g14
(S'S10'
p662
I0
I1
tp663
Rp664
(I3
S'|'
p665
NNNI10
I1
I0
tp666
bS'16g05a0501'
p667
tp668
Rp669
ag21
(g14
(S'S10'
p670
I0
I1
tp671
Rp672
(I3
S'|'
p673
NNNI10
I1
I0
tp674
bS'16g05a0502'
p675
tp676
Rp677
ag21
(g14
(S'S10'
p678
I0
I1
tp679
Rp680
(I3
S'|'
p681
NNNI10
I1
I0
tp682
bS'16ht1a0501'
p683
tp684
Rp685
ag21
(g14
(S'S10'
p686
I0
I1
tp687
Rp688
(I3
S'|'
p689
NNNI10
I1
I0
tp690
bS'16ht1a0502'
p691
tp692
Rp693
atp694
bsS'sparse_output'
p695
I00
sS'classes'
p696
NsS'_sklearn_version'
p697
S'0.20.2'
p698
sb.