ccopy_reg
_reconstructor
p0
(csklearn.preprocessing.label
MultiLabelBinarizer
p1
c__builtin__
object
p2
Ntp3
Rp4
(dp5
S'classes_'
p6
cnumpy.core.multiarray
_reconstruct
p7
(cnumpy
ndarray
p8
(I0
tp9
S'b'
p10
tp11
Rp12
(I1
(I2
tp13
cnumpy
dtype
p14
(S'O8'
p15
I0
I1
tp16
Rp17
(I3
S'|'
p18
NNNI-1
I-1
I63
tp19
bI00
(lp20
cnumpy.core.multiarray
scalar
p21
(g14
(S'S10'
p22
I0
I1
tp23
Rp24
(I3
S'|'
p25
NNNI10
I1
I0
tp26
bS'16G01A0516'
p27
tp28
Rp29
ag21
(g14
(S'S10'
p30
I0
I1
tp31
Rp32
(I3
S'|'
p33
NNNI10
I1
I0
tp34
bS'16G01A0525'
p35
tp36
Rp37
atp38
bsS'sparse_output'
p39
I00
sS'classes'
p40
NsS'_sklearn_version'
p41
S'0.20.2'
p42
sb.